; ModuleID = '24/2275.c'
source_filename = "24/2275.c"
target datalayout = "e-m:e-p270:32:32-p271:32:32-p272:64:64-i64:64-f80:128-n8:16:32:64-S128"
target triple = "x86_64-pc-linux-gnu"

@.str = private unnamed_addr constant [3 x i8] c"%c\00", align 1
@.str.1 = private unnamed_addr constant [2 x i8] c"\0A\00", align 1

; Function Attrs: noinline nounwind uwtable
define dso_local i32 @main() #0 {
  %1 = alloca i32, align 4
  %2 = alloca i32, align 4
  %3 = alloca i32, align 4
  %4 = alloca i32, align 4
  %5 = alloca i32, align 4
  %6 = alloca i32, align 4
  %7 = alloca i32, align 4
  %8 = alloca i32, align 4
  %9 = alloca [5000 x i8], align 16
  %10 = alloca i8, align 1
  %11 = alloca [20 x i8], align 16
  %12 = alloca [20 x i8], align 16
  store i32 0, i32* %1, align 4
  store i32 0, i32* %2, align 4
  store i32 100, i32* %3, align 4
  store i32 0, i32* %8, align 4
  %13 = getelementptr inbounds [5000 x i8], [5000 x i8]* %9, i64 0, i64 0
  %14 = call i32 (i8*, ...) bitcast (i32 (...)* @gets to i32 (i8*, ...)*)(i8* %13)
  store i32 0, i32* %4, align 4
  br label %15

15:                                               ; preds = %89, %0
  %16 = load i32, i32* %4, align 4
  %17 = sext i32 %16 to i64
  %18 = getelementptr inbounds [5000 x i8], [5000 x i8]* %9, i64 0, i64 %17
  %19 = load i8, i8* %18, align 1
  store i8 %19, i8* %10, align 1
  %20 = sext i8 %19 to i32
  %21 = icmp ne i32 %20, 0
  br i1 %21, label %22, label %92

22:                                               ; preds = %15
  %23 = load i32, i32* %4, align 4
  %24 = sext i32 %23 to i64
  %25 = getelementptr inbounds [5000 x i8], [5000 x i8]* %9, i64 0, i64 %24
  %26 = load i8, i8* %25, align 1
  %27 = sext i8 %26 to i32
  %28 = icmp ne i32 %27, 32
  br i1 %28, label %29, label %39

29:                                               ; preds = %22
  %30 = load i32, i32* %4, align 4
  %31 = sext i32 %30 to i64
  %32 = getelementptr inbounds [5000 x i8], [5000 x i8]* %9, i64 0, i64 %31
  %33 = load i8, i8* %32, align 1
  %34 = sext i8 %33 to i32
  %35 = icmp ne i32 %34, 44
  br i1 %35, label %36, label %39

36:                                               ; preds = %29
  %37 = load i32, i32* %8, align 4
  %38 = add nsw i32 %37, 1
  store i32 %38, i32* %8, align 4
  br label %88

39:                                               ; preds = %29, %22
  %40 = load i32, i32* %4, align 4
  %41 = sext i32 %40 to i64
  %42 = getelementptr inbounds [5000 x i8], [5000 x i8]* %9, i64 0, i64 %41
  %43 = load i8, i8* %42, align 1
  %44 = sext i8 %43 to i32
  %45 = icmp eq i32 %44, 32
  br i1 %45, label %53, label %46

46:                                               ; preds = %39
  %47 = load i32, i32* %4, align 4
  %48 = sext i32 %47 to i64
  %49 = getelementptr inbounds [5000 x i8], [5000 x i8]* %9, i64 0, i64 %48
  %50 = load i8, i8* %49, align 1
  %51 = sext i8 %50 to i32
  %52 = icmp eq i32 %51, 44
  br i1 %52, label %53, label %72

53:                                               ; preds = %46, %39
  %54 = load i32, i32* %4, align 4
  %55 = add nsw i32 %54, 1
  %56 = sext i32 %55 to i64
  %57 = getelementptr inbounds [5000 x i8], [5000 x i8]* %9, i64 0, i64 %56
  %58 = load i8, i8* %57, align 1
  %59 = sext i8 %58 to i32
  %60 = icmp eq i32 %59, 32
  br i1 %60, label %69, label %61

61:                                               ; preds = %53
  %62 = load i32, i32* %4, align 4
  %63 = add nsw i32 %62, 1
  %64 = sext i32 %63 to i64
  %65 = getelementptr inbounds [5000 x i8], [5000 x i8]* %9, i64 0, i64 %64
  %66 = load i8, i8* %65, align 1
  %67 = sext i8 %66 to i32
  %68 = icmp eq i32 %67, 44
  br i1 %68, label %69, label %72

69:                                               ; preds = %61, %53
  %70 = load i32, i32* %4, align 4
  %71 = add nsw i32 %70, 1
  store i32 %71, i32* %4, align 4
  br label %87

72:                                               ; preds = %61, %46
  %73 = load i32, i32* %8, align 4
  %74 = load i32, i32* %2, align 4
  %75 = icmp sgt i32 %73, %74
  br i1 %75, label %76, label %79

76:                                               ; preds = %72
  %77 = load i32, i32* %8, align 4
  store i32 %77, i32* %2, align 4
  %78 = load i32, i32* %4, align 4
  store i32 %78, i32* %6, align 4
  br label %79

79:                                               ; preds = %76, %72
  %80 = load i32, i32* %8, align 4
  %81 = load i32, i32* %3, align 4
  %82 = icmp slt i32 %80, %81
  br i1 %82, label %83, label %86

83:                                               ; preds = %79
  %84 = load i32, i32* %8, align 4
  store i32 %84, i32* %3, align 4
  %85 = load i32, i32* %4, align 4
  store i32 %85, i32* %7, align 4
  br label %86

86:                                               ; preds = %83, %79
  store i32 0, i32* %8, align 4
  br label %87

87:                                               ; preds = %86, %69
  br label %88

88:                                               ; preds = %87, %36
  br label %89

89:                                               ; preds = %88
  %90 = load i32, i32* %4, align 4
  %91 = add nsw i32 %90, 1
  store i32 %91, i32* %4, align 4
  br label %15

92:                                               ; preds = %15
  %93 = load i32, i32* %8, align 4
  %94 = load i32, i32* %2, align 4
  %95 = icmp sgt i32 %93, %94
  br i1 %95, label %96, label %99

96:                                               ; preds = %92
  %97 = load i32, i32* %8, align 4
  store i32 %97, i32* %2, align 4
  %98 = load i32, i32* %4, align 4
  store i32 %98, i32* %6, align 4
  br label %99

99:                                               ; preds = %96, %92
  %100 = load i32, i32* %8, align 4
  %101 = load i32, i32* %3, align 4
  %102 = icmp slt i32 %100, %101
  br i1 %102, label %103, label %106

103:                                              ; preds = %99
  %104 = load i32, i32* %8, align 4
  store i32 %104, i32* %3, align 4
  %105 = load i32, i32* %4, align 4
  store i32 %105, i32* %7, align 4
  br label %106

106:                                              ; preds = %103, %99
  %107 = load i32, i32* %6, align 4
  %108 = load i32, i32* %2, align 4
  %109 = sub nsw i32 %107, %108
  store i32 %109, i32* %4, align 4
  br label %110

110:                                              ; preds = %121, %106
  %111 = load i32, i32* %4, align 4
  %112 = load i32, i32* %6, align 4
  %113 = icmp slt i32 %111, %112
  br i1 %113, label %114, label %124

114:                                              ; preds = %110
  %115 = load i32, i32* %4, align 4
  %116 = sext i32 %115 to i64
  %117 = getelementptr inbounds [5000 x i8], [5000 x i8]* %9, i64 0, i64 %116
  %118 = load i8, i8* %117, align 1
  %119 = sext i8 %118 to i32
  %120 = call i32 (i8*, ...) @printf(i8* getelementptr inbounds ([3 x i8], [3 x i8]* @.str, i64 0, i64 0), i32 %119)
  br label %121

121:                                              ; preds = %114
  %122 = load i32, i32* %4, align 4
  %123 = add nsw i32 %122, 1
  store i32 %123, i32* %4, align 4
  br label %110

124:                                              ; preds = %110
  %125 = call i32 (i8*, ...) @printf(i8* getelementptr inbounds ([2 x i8], [2 x i8]* @.str.1, i64 0, i64 0))
  %126 = load i32, i32* %7, align 4
  %127 = load i32, i32* %3, align 4
  %128 = sub nsw i32 %126, %127
  store i32 %128, i32* %5, align 4
  br label %129

129:                                              ; preds = %140, %124
  %130 = load i32, i32* %5, align 4
  %131 = load i32, i32* %7, align 4
  %132 = icmp slt i32 %130, %131
  br i1 %132, label %133, label %143

133:                                              ; preds = %129
  %134 = load i32, i32* %5, align 4
  %135 = sext i32 %134 to i64
  %136 = getelementptr inbounds [5000 x i8], [5000 x i8]* %9, i64 0, i64 %135
  %137 = load i8, i8* %136, align 1
  %138 = sext i8 %137 to i32
  %139 = call i32 (i8*, ...) @printf(i8* getelementptr inbounds ([3 x i8], [3 x i8]* @.str, i64 0, i64 0), i32 %138)
  br label %140

140:                                              ; preds = %133
  %141 = load i32, i32* %5, align 4
  %142 = add nsw i32 %141, 1
  store i32 %142, i32* %5, align 4
  br label %129

143:                                              ; preds = %129
  ret i32 0
}

declare dso_local i32 @gets(...) #1

declare dso_local i32 @printf(i8*, ...) #1


!llvm.module.flags = !{!0}
!llvm.ident = !{!1}

!0 = !{i32 1, !"wchar_size", i32 4}
!1 = !{!"clang version 10.0.0-4ubuntu1 "}
